(lp0
(lp1
(dp2
S'street'
p3
S'Vasylkivska'
p4
sS'id'
p5
I0
sS'name'
p6
S'Ocean'
p7
sa(dp8
S'street'
p9
S'Verhniy Val'
p10
sS'id'
p11
I1
sS'name'
p12
S'KinoGO'
p13
saa(lp14
(dp15
S'cinema_id'
p16
I0
sS'time'
p17
S'13:30'
p18
sS'cost'
p19
F34.0
sg11
I0
sg12
S'Now u see me'
p20
sa(dp21
g16
I0
sg17
S'19:30'
p22
sg19
F75.0
sg11
I1
sg12
S'Tor:Ragnarok'
p23
sa(dp24
g16
I1
sg17
S'18:00'
p25
sg19
F50.0
sg11
I2
sg12
S'Big Bang'
p26
saa.